; Function Attrs: nofree norecurse nosync nounwind memory(readwrite, inaccessiblemem: none) uwtable
define hidden noundef i32 @lxb_encoding_encode_koi8_r(ptr nocapture noundef %0, ptr nocapture noundef %1, ptr noundef readnone %2) local_unnamed_addr #0 {
  %4 = load ptr, ptr %1, align 8
  %5 = icmp ult ptr %4, %2
  br i1 %5, label %.lr.ph, label %.loopexit

.lr.ph:                                           ; preds = %3
  %6 = getelementptr inbounds i8, ptr %0, i64 32
  %7 = getelementptr inbounds i8, ptr %0, i64 24
  %8 = getelementptr inbounds i8, ptr %0, i64 40
  %9 = getelementptr inbounds i8, ptr %0, i64 16
  %10 = getelementptr inbounds i8, ptr %0, i64 8
  br label %11

11:                                               ; preds = %.lr.ph, %58
  %.03648 = phi ptr [ %4, %.lr.ph ], [ %59, %58 ]
  %12 = load i32, ptr %.03648, align 4
  %13 = icmp ult i32 %12, 128
  br i1 %13, label %14, label %23

14:                                               ; preds = %11
  %15 = load i64, ptr %7, align 8
  %16 = load i64, ptr %9, align 8
  %17 = icmp eq i64 %15, %16
  br i1 %17, label %.loopexit.sink.split, label %18

18:                                               ; preds = %14
  %19 = trunc i32 %12 to i8
  %20 = load ptr, ptr %10, align 8
  %21 = add i64 %15, 1
  store i64 %21, ptr %7, align 8
  %22 = getelementptr inbounds i8, ptr %20, i64 %15
  store i8 %19, ptr %22, align 1
  br label %58

23:                                               ; preds = %11
  %24 = urem i32 %12, 486
  %.zext = zext nneg i32 %24 to i64
  %gep = getelementptr %struct.lexbor_shs_hash_t, ptr getelementptr inbounds ([487 x %struct.lexbor_shs_hash_t], ptr @lxb_encoding_single_hash_koi8_r, i64 0, i64 1, i32 0), i64 %.zext
  br label %25

25:                                               ; preds = %28, %23
  %.0.i = phi ptr [ %gep, %23 ], [ %32, %28 ]
  %26 = load i32, ptr %.0.i, align 4
  %27 = icmp eq i32 %26, %12
  br i1 %27, label %lexbor_shs_hash_get_static.exit, label %28

28:                                               ; preds = %25
  %29 = getelementptr inbounds i8, ptr %.0.i, i64 8
  %30 = load i32, ptr %29, align 4
  %31 = zext i32 %30 to i64
  %32 = getelementptr inbounds %struct.lexbor_shs_hash_t, ptr @lxb_encoding_single_hash_koi8_r, i64 %31
  %.not.i = icmp eq i32 %30, 0
  br i1 %.not.i, label %33, label %25

33:                                               ; preds = %28
  %34 = load ptr, ptr %6, align 8
  %35 = icmp eq ptr %34, null
  br i1 %35, label %.loopexit.sink.split, label %36

36:                                               ; preds = %33
  %37 = load i64, ptr %7, align 8
  %38 = load i64, ptr %8, align 8
  %39 = add i64 %38, %37
  %40 = load i64, ptr %9, align 8
  %41 = icmp ugt i64 %39, %40
  br i1 %41, label %.loopexit.sink.split, label %42

42:                                               ; preds = %36
  %43 = load ptr, ptr %10, align 8
  %44 = getelementptr inbounds i8, ptr %43, i64 %37
  tail call void @llvm.memcpy.p0.p0.i64(ptr align 1 %44, ptr nonnull align 1 %34, i64 %38, i1 false)
  %45 = load i64, ptr %8, align 8
  %46 = load i64, ptr %7, align 8
  %47 = add i64 %46, %45
  store i64 %47, ptr %7, align 8
  br label %58

lexbor_shs_hash_get_static.exit:                  ; preds = %25
  %48 = load i64, ptr %7, align 8
  %49 = load i64, ptr %9, align 8
  %50 = icmp eq i64 %48, %49
  br i1 %50, label %.loopexit.sink.split, label %51

51:                                               ; preds = %lexbor_shs_hash_get_static.exit
  %52 = getelementptr inbounds i8, ptr %.0.i, i64 4
  %53 = load i32, ptr %52, align 4
  %54 = trunc i32 %53 to i8
  %55 = load ptr, ptr %10, align 8
  %56 = add i64 %48, 1
  store i64 %56, ptr %7, align 8
  %57 = getelementptr inbounds i8, ptr %55, i64 %48
  store i8 %54, ptr %57, align 1
  br label %58

58:                                               ; preds = %51, %42, %18
  %59 = getelementptr inbounds i8, ptr %.03648, i64 4
  %60 = icmp ult ptr %59, %2
  br i1 %60, label %11, label %.loopexit

.loopexit.sink.split:                             ; preds = %lexbor_shs_hash_get_static.exit, %36, %33, %14
  %.0.ph = phi i32 [ 15, %14 ], [ 1, %33 ], [ 15, %36 ], [ 15, %lexbor_shs_hash_get_static.exit ]
  store ptr %.03648, ptr %1, align 8
  br label %.loopexit

.loopexit:                                        ; preds = %58, %.loopexit.sink.split, %3
  %.0 = phi i32 [ 0, %3 ], [ %.0.ph, %.loopexit.sink.split ], [ 0, %58 ]
  ret i32 %.0
}